target datalayout = "e-m:e-p270:32:32-p271:32:32-p272:64:64-i64:64-i128:128-f80:128-n8:16:32:64-S128"
target triple = "x86_64-pc-linux-gnu"

%"class.cv::(anonymous namespace)::ufixedpoint16" = type { i16 }

; Function Attrs: alwaysinline mustprogress nounwind uwtable
define internal noundef nonnull align 2 dereferenceable(2) ptr @_ZN2cv12_GLOBAL__N_113ufixedpoint16aSERKh(ptr noundef nonnull align 2 dereferenceable(2) %0, ptr noundef nonnull align 1 dereferenceable(1) %1) #17 align 2 {
  %3 = alloca ptr, align 8
  %4 = alloca ptr, align 8
  store ptr %0, ptr %3, align 8, !tbaa !204
  store ptr %1, ptr %4, align 8, !tbaa !82
  %5 = load ptr, ptr %3, align 8
  %6 = load ptr, ptr %4, align 8, !tbaa !82
  %7 = load i8, ptr %6, align 1, !tbaa !42
  %8 = zext i8 %7 to i16
  %9 = zext i16 %8 to i32
  %10 = shl i32 %9, 8
  %11 = trunc i32 %10 to i16
  %12 = getelementptr inbounds nuw %"class.cv::(anonymous namespace)::ufixedpoint16", ptr %5, i32 0, i32 0
  store i16 %11, ptr %12, align 2, !tbaa !230
  ret ptr %5
}

; Function Attrs: mustprogress uwtable
define internal void @_ZN2cv12cpu_baseline12_GLOBAL__N_114hlineSmooth1N1IhNS_12_GLOBAL__N_113ufixedpoint16EEEvPKT_iPKT0_iPS8_ii(ptr noundef %0, i32 noundef %1, ptr noundef %2, i32 noundef %3, ptr noundef %4, i32 noundef %5, i32 noundef %6) #4 {
  %8 = alloca ptr, align 8
  %9 = alloca i32, align 4
  %10 = alloca ptr, align 8
  %11 = alloca i32, align 4
  %12 = alloca ptr, align 8
  %13 = alloca i32, align 4
  %14 = alloca i32, align 4
  %15 = alloca i32, align 4
  %16 = alloca i32, align 4
  store ptr %0, ptr %8, align 8, !tbaa !82
  store i32 %1, ptr %9, align 4, !tbaa !10
  store ptr %2, ptr %10, align 8, !tbaa !204
  store i32 %3, ptr %11, align 4, !tbaa !10
  store ptr %4, ptr %12, align 8, !tbaa !204
  store i32 %5, ptr %13, align 4, !tbaa !10
  store i32 %6, ptr %14, align 4, !tbaa !10
  call void @llvm.lifetime.start.p0(i64 4, ptr %15) #3
  %17 = load i32, ptr %13, align 4, !tbaa !10
  %18 = load i32, ptr %9, align 4, !tbaa !10
  %19 = mul nsw i32 %17, %18
  store i32 %19, ptr %15, align 4, !tbaa !10
  call void @llvm.lifetime.start.p0(i64 4, ptr %16) #3
  store i32 0, ptr %16, align 4, !tbaa !10
  br label %20

20:                                               ; preds = %34, %7
  %21 = load i32, ptr %16, align 4, !tbaa !10
  %22 = load i32, ptr %15, align 4, !tbaa !10
  %23 = icmp slt i32 %21, %22
  br i1 %23, label %24, label %37

24:                                               ; preds = %20
  %25 = load ptr, ptr %8, align 8, !tbaa !82
  %26 = load i32, ptr %16, align 4, !tbaa !10
  %27 = sext i32 %26 to i64
  %28 = getelementptr inbounds i8, ptr %25, i64 %27
  %29 = load ptr, ptr %12, align 8, !tbaa !204
  %30 = load i32, ptr %16, align 4, !tbaa !10
  %31 = sext i32 %30 to i64
  %32 = getelementptr inbounds %"class.cv::(anonymous namespace)::ufixedpoint16", ptr %29, i64 %31
  %33 = call noundef nonnull align 2 dereferenceable(2) ptr @_ZN2cv12_GLOBAL__N_113ufixedpoint16aSERKh(ptr noundef nonnull align 2 dereferenceable(2) %32, ptr noundef nonnull align 1 dereferenceable(1) %28)
  br label %34

34:                                               ; preds = %24
  %35 = load i32, ptr %16, align 4, !tbaa !10
  %36 = add nsw i32 %35, 1
  store i32 %36, ptr %16, align 4, !tbaa !10
  br label %20, !llvm.loop !233

37:                                               ; preds = %20
  call void @llvm.lifetime.end.p0(i64 4, ptr %16) #3
  call void @llvm.lifetime.end.p0(i64 4, ptr %15) #3
  ret void
}