; Function Attrs: mustprogress nofree norecurse nosync nounwind memory(argmem: readwrite) uwtable
define internal void @_ZN2cv12cpu_baseline12_GLOBAL__N_114hlineSmooth1N1IhNS_12_GLOBAL__N_113ufixedpoint16EEEvPKT_iPKT0_iPS8_ii(ptr noundef readonly captures(none) %0, i32 noundef %1, ptr readnone captures(none) %2, i32 %3, ptr noundef writeonly captures(none) %4, i32 noundef %5, i32 %6) #16 {
  %8 = mul nsw i32 %5, %1
  %9 = icmp sgt i32 %8, 0
  br i1 %9, label %.lr.ph.preheader, label %._crit_edge

.lr.ph.preheader:                                 ; preds = %7
  %wide.trip.count = zext nneg i32 %8 to i64
  br label %.lr.ph

.lr.ph:                                           ; preds = %.lr.ph.preheader, %.lr.ph
  %indvars.iv = phi i64 [ 0, %.lr.ph.preheader ], [ %indvars.iv.next, %.lr.ph ]
  %10 = getelementptr inbounds nuw i8, ptr %0, i64 %indvars.iv
  %11 = getelementptr inbounds nuw %"class.cv::(anonymous namespace)::ufixedpoint16", ptr %4, i64 %indvars.iv
  %12 = load i8, ptr %10, align 1, !tbaa !282
  %13 = zext i8 %12 to i16
  %14 = shl nuw i16 %13, 8
  store i16 %14, ptr %11, align 2, !tbaa !41
  %indvars.iv.next = add nuw nsw i64 %indvars.iv, 1
  %exitcond.not = icmp eq i64 %indvars.iv.next, %wide.trip.count
  br i1 %exitcond.not, label %._crit_edge, label %.lr.ph, !llvm.loop !372

._crit_edge:                                      ; preds = %.lr.ph, %7
  ret void
}